; Function Attrs: mustprogress uwtable
define hidden noundef i64 @duckdb_fsst_compress(ptr noundef %0, i64 noundef %1, ptr noundef %2, ptr noundef %3, i64 noundef %4, ptr noundef %5, ptr noundef %6, ptr noundef %7) local_unnamed_addr #5 {
  %9 = getelementptr inbounds nuw i64, ptr %2, i64 %1
  %.not6.i = icmp eq i64 %1, 0
  br i1 %.not6.i, label %_ZSt10accumulateIPmiET0_T_S2_S1_.exit, label %.lr.ph.i

.lr.ph.i:                                         ; preds = %8, %.lr.ph.i
  %.08.i = phi i32 [ %12, %.lr.ph.i ], [ 0, %8 ]
  %.057.i = phi ptr [ %13, %.lr.ph.i ], [ %2, %8 ]
  %10 = load i64, ptr %.057.i, align 8, !tbaa !30
  %11 = trunc i64 %10 to i32
  %12 = add i32 %.08.i, %11
  %13 = getelementptr inbounds nuw i8, ptr %.057.i, i64 8
  %.not.i = icmp eq ptr %13, %9
  br i1 %.not.i, label %_ZSt10accumulateIPmiET0_T_S2_S1_.exit, label %.lr.ph.i, !llvm.loop !128

_ZSt10accumulateIPmiET0_T_S2_S1_.exit:            ; preds = %.lr.ph.i, %8
  %.0.lcssa.i = phi i32 [ 0, %8 ], [ %12, %.lr.ph.i ]
  %14 = load ptr, ptr %0, align 8, !tbaa !110
  %15 = getelementptr inbounds nuw i8, ptr %14, i64 156170
  %16 = load i16, ptr %15, align 2, !tbaa !34
  %17 = zext i16 %16 to i32
  %18 = mul nuw nsw i32 %17, 100
  %19 = getelementptr inbounds nuw i8, ptr %14, i64 156160
  %20 = load i16, ptr %19, align 8, !tbaa !60
  %21 = zext i16 %20 to i32
  %22 = mul nuw nsw i32 %21, 65
  %23 = icmp samesign ugt i32 %18, %22
  br i1 %23, label %24, label %31

24:                                               ; preds = %_ZSt10accumulateIPmiET0_T_S2_S1_.exit
  %25 = getelementptr inbounds nuw i8, ptr %14, i64 156162
  %26 = load i16, ptr %25, align 2, !tbaa !24
  %27 = zext i16 %26 to i32
  %28 = mul nuw nsw i32 %27, 100
  %29 = mul nuw nsw i32 %17, 95
  %30 = icmp samesign ugt i32 %28, %29
  br i1 %30, label %_Z13_compressAutoP7EncodermPmPPhmS2_S1_S3_i.exit, label %31

31:                                               ; preds = %24, %_ZSt10accumulateIPmiET0_T_S2_S1_.exit
  %32 = getelementptr inbounds nuw i8, ptr %14, i64 156168
  %33 = load i16, ptr %32, align 8, !tbaa !34
  %34 = add i16 %33, -25
  %or.cond.i = icmp ult i16 %34, 67
  br i1 %or.cond.i, label %35, label %_Z13_compressAutoP7EncodermPmPPhmS2_S1_S3_i.exit

35:                                               ; preds = %31
  %36 = icmp samesign ult i16 %33, 43
  br i1 %36, label %.thread.i, label %37

37:                                               ; preds = %35
  %38 = getelementptr inbounds nuw i8, ptr %14, i64 156180
  %39 = load i16, ptr %38, align 4, !tbaa !34
  %40 = zext i16 %39 to i32
  %41 = getelementptr inbounds nuw i8, ptr %14, i64 156182
  %42 = load i16, ptr %41, align 2, !tbaa !34
  %43 = zext i16 %42 to i32
  %44 = add nuw nsw i32 %43, %40
  %45 = icmp samesign ult i32 %44, 29
  br i1 %45, label %46, label %_Z13_compressAutoP7EncodermPmPPhmS2_S1_S3_i.exit

46:                                               ; preds = %37
  %47 = icmp samesign ult i16 %33, 72
  br i1 %47, label %.thread.i, label %48

48:                                               ; preds = %46
  %49 = getelementptr inbounds nuw i8, ptr %14, i64 156172
  %50 = load i16, ptr %49, align 4, !tbaa !34
  %51 = icmp ult i16 %50, 72
  br i1 %51, label %.thread.i, label %_Z13_compressAutoP7EncodermPmPPhmS2_S1_S3_i.exit

.thread.i:                                        ; preds = %48, %46, %35
  br label %_Z13_compressAutoP7EncodermPmPPhmS2_S1_S3_i.exit

_Z13_compressAutoP7EncodermPmPPhmS2_S1_S3_i.exit: ; preds = %24, %31, %37, %48, %.thread.i
  %.021.i = phi i1 [ true, %.thread.i ], [ false, %48 ], [ false, %37 ], [ false, %31 ], [ false, %24 ]
  %.0.i = phi i1 [ false, %.thread.i ], [ false, %48 ], [ false, %37 ], [ false, %31 ], [ true, %24 ]
  %52 = mul i64 %1, 12
  %53 = sext i32 %.0.lcssa.i to i64
  %54 = icmp ult i64 %52, %53
  %55 = icmp ugt i64 %1, 64
  %56 = icmp ugt i32 %.0.lcssa.i, 32768
  %57 = or i1 %55, %56
  %58 = and i1 %54, %57
  %59 = select i1 %58, i32 3, i32 0
  %60 = tail call noundef i64 @_Z13_compressImplP7EncodermPmPPhmS2_S1_S3_bbi(ptr noundef nonnull %0, i64 noundef %1, ptr noundef %2, ptr noundef %3, i64 noundef %4, ptr noundef %5, ptr noundef %6, ptr noundef %7, i1 noundef zeroext %.0.i, i1 noundef zeroext %.021.i, i32 noundef %59)
  ret i64 %60
}